target datalayout = "e-m:e-p270:32:32-p271:32:32-p272:64:64-i64:64-i128:128-f80:128-n8:16:32:64-S128"
target triple = "x86_64-unknown-linux-gnu"

%struct.GeoHashBits = type { i64, i8 }
%struct.redisObject = type { i32, i32, ptr }
%struct.client = type { i64, i64, ptr, i32, ptr, ptr, ptr, ptr, ptr, i64, i64, i32, ptr, i32, i32, ptr, i64, ptr, ptr, ptr, ptr, i32, i32, i64, ptr, i64, ptr, i64, i64, i64, i32, ptr, i64, i64, i32, i32, i32, i32, i64, i64, ptr, i64, i64, i64, i64, i64, i64, i64, i64, [41 x i8], i32, ptr, i32, i32, %struct.multiState, %struct.blockingState, i64, ptr, ptr, ptr, ptr, ptr, ptr, ptr, ptr, ptr, ptr, ptr, ptr, ptr, ptr, i64, ptr, i64, i32, ptr, ptr, ptr, i64, %struct.listNode, i64, i64, i32, i64, ptr }
%struct.multiState = type { ptr, i32, i32, i32, i64, i32 }
%struct.blockingState = type { i32, i64, i32, ptr, i32, i32, i64, ptr, ptr }
%struct.listNode = type { ptr, ptr, ptr }

; Function Attrs: nounwind uwtable
define dso_local i32 @decodeGeohash(double noundef %bits, ptr noundef %xy) #0 {
entry:
  %bits.addr = alloca double, align 8
  %xy.addr = alloca ptr, align 8
  %hash = alloca %struct.GeoHashBits, align 8
  store double %bits, ptr %bits.addr, align 8
  store ptr %xy, ptr %xy.addr, align 8
  %bits1 = getelementptr inbounds %struct.GeoHashBits, ptr %hash, i32 0, i32 0
  %0 = load double, ptr %bits.addr, align 8
  %conv = fptoui double %0 to i64
  store i64 %conv, ptr %bits1, align 8
  %step = getelementptr inbounds %struct.GeoHashBits, ptr %hash, i32 0, i32 1
  store i8 26, ptr %step, align 8
  %1 = load ptr, ptr %xy.addr, align 8
  %2 = getelementptr inbounds { i64, i8 }, ptr %hash, i32 0, i32 0
  %3 = load i64, ptr %2, align 8
  %4 = getelementptr inbounds { i64, i8 }, ptr %hash, i32 0, i32 1
  %5 = load i8, ptr %4, align 8
  %call = call i32 @geohashDecodeToLongLatWGS84(i64 %3, i8 %5, ptr noundef %1)
  ret i32 %call
}

; Function Attrs: nounwind uwtable
define dso_local void @geoposCommand(ptr noundef %c) #0 {
entry:
  %c.addr = alloca ptr, align 8
  %j = alloca i32, align 4
  %zobj = alloca ptr, align 8
  %score = alloca double, align 8
  %xy = alloca [2 x double], align 16
  store ptr %c, ptr %c.addr, align 8
  %0 = load ptr, ptr %c.addr, align 8
  %db = getelementptr inbounds %struct.client, ptr %0, i32 0, i32 4
  %1 = load ptr, ptr %db, align 8
  %2 = load ptr, ptr %c.addr, align 8
  %argv = getelementptr inbounds %struct.client, ptr %2, i32 0, i32 12
  %3 = load ptr, ptr %argv, align 8
  %arrayidx = getelementptr inbounds ptr, ptr %3, i64 1
  %4 = load ptr, ptr %arrayidx, align 8
  %call = call ptr @lookupKeyRead(ptr noundef %1, ptr noundef %4)
  store ptr %call, ptr %zobj, align 8
  %5 = load ptr, ptr %c.addr, align 8
  %6 = load ptr, ptr %zobj, align 8
  %call1 = call i32 @checkType(ptr noundef %5, ptr noundef %6, i32 noundef 3)
  %tobool = icmp ne i32 %call1, 0
  br i1 %tobool, label %if.then, label %if.end

if.then:                                          ; preds = %entry
  br label %for.end

if.end:                                           ; preds = %entry
  %7 = load ptr, ptr %c.addr, align 8
  %8 = load ptr, ptr %c.addr, align 8
  %argc = getelementptr inbounds %struct.client, ptr %8, i32 0, i32 11
  %9 = load i32, ptr %argc, align 8
  %sub = sub nsw i32 %9, 2
  %conv = sext i32 %sub to i64
  call void @addReplyArrayLen(ptr noundef %7, i64 noundef %conv)
  store i32 2, ptr %j, align 4
  br label %for.cond

for.cond:                                         ; preds = %for.inc, %if.end
  %10 = load i32, ptr %j, align 4
  %11 = load ptr, ptr %c.addr, align 8
  %argc2 = getelementptr inbounds %struct.client, ptr %11, i32 0, i32 11
  %12 = load i32, ptr %argc2, align 8
  %cmp = icmp slt i32 %10, %12
  br i1 %cmp, label %for.body, label %for.end

for.body:                                         ; preds = %for.cond
  %13 = load ptr, ptr %zobj, align 8
  %tobool4 = icmp ne ptr %13, null
  br i1 %tobool4, label %lor.lhs.false, label %if.then10

lor.lhs.false:                                    ; preds = %for.body
  %14 = load ptr, ptr %zobj, align 8
  %15 = load ptr, ptr %c.addr, align 8
  %argv5 = getelementptr inbounds %struct.client, ptr %15, i32 0, i32 12
  %16 = load ptr, ptr %argv5, align 8
  %17 = load i32, ptr %j, align 4
  %idxprom = sext i32 %17 to i64
  %arrayidx6 = getelementptr inbounds ptr, ptr %16, i64 %idxprom
  %18 = load ptr, ptr %arrayidx6, align 8
  %ptr = getelementptr inbounds %struct.redisObject, ptr %18, i32 0, i32 2
  %19 = load ptr, ptr %ptr, align 8
  %call7 = call i32 @zsetScore(ptr noundef %14, ptr noundef %19, ptr noundef %score)
  %cmp8 = icmp eq i32 %call7, -1
  br i1 %cmp8, label %if.then10, label %if.else

if.then10:                                        ; preds = %lor.lhs.false, %for.body
  %20 = load ptr, ptr %c.addr, align 8
  call void @addReplyNullArray(ptr noundef %20)
  br label %if.end19

if.else:                                          ; preds = %lor.lhs.false
  %21 = load double, ptr %score, align 8
  %arraydecay = getelementptr inbounds [2 x double], ptr %xy, i64 0, i64 0
  %call11 = call i32 @decodeGeohash(double noundef %21, ptr noundef %arraydecay)
  %tobool12 = icmp ne i32 %call11, 0
  br i1 %tobool12, label %if.end14, label %if.then13

if.then13:                                        ; preds = %if.else
  %22 = load ptr, ptr %c.addr, align 8
  call void @addReplyNullArray(ptr noundef %22)
  br label %for.inc

if.end14:                                         ; preds = %if.else
  %23 = load ptr, ptr %c.addr, align 8
  call void @addReplyArrayLen(ptr noundef %23, i64 noundef 2)
  %24 = load ptr, ptr %c.addr, align 8
  %arrayidx15 = getelementptr inbounds [2 x double], ptr %xy, i64 0, i64 0
  %25 = load double, ptr %arrayidx15, align 16
  %conv16 = fpext double %25 to x86_fp80
  call void @addReplyHumanLongDouble(ptr noundef %24, x86_fp80 noundef %conv16)
  %26 = load ptr, ptr %c.addr, align 8
  %arrayidx17 = getelementptr inbounds [2 x double], ptr %xy, i64 0, i64 1
  %27 = load double, ptr %arrayidx17, align 8
  %conv18 = fpext double %27 to x86_fp80
  call void @addReplyHumanLongDouble(ptr noundef %26, x86_fp80 noundef %conv18)
  br label %if.end19

if.end19:                                         ; preds = %if.end14, %if.then10
  br label %for.inc

for.inc:                                          ; preds = %if.end19, %if.then13
  %28 = load i32, ptr %j, align 4
  %inc = add nsw i32 %28, 1
  store i32 %inc, ptr %j, align 4
  br label %for.cond, !llvm.loop !20

for.end:                                          ; preds = %for.cond, %if.then
  ret void
}