; Function Attrs: nounwind uwtable
define dso_local void @geoposCommand(ptr noundef %c) local_unnamed_addr #0 {
entry:
  %score = alloca double, align 8
  %xy = alloca [2 x double], align 16
  %db = getelementptr inbounds i8, ptr %c, i64 32
  %0 = load ptr, ptr %db, align 8
  %argv = getelementptr inbounds i8, ptr %c, i64 96
  %1 = load ptr, ptr %argv, align 8
  %arrayidx = getelementptr inbounds i8, ptr %1, i64 8
  %2 = load ptr, ptr %arrayidx, align 8
  %call = tail call ptr @lookupKeyRead(ptr noundef %0, ptr noundef %2) #14
  %call1 = tail call i32 @checkType(ptr noundef %c, ptr noundef %call, i32 noundef 3) #14
  %tobool.not = icmp eq i32 %call1, 0
  br i1 %tobool.not, label %if.end, label %for.end

if.end:                                           ; preds = %entry
  %argc = getelementptr inbounds i8, ptr %c, i64 88
  %3 = load i32, ptr %argc, align 8
  %sub = add nsw i32 %3, -2
  %conv = sext i32 %sub to i64
  tail call void @addReplyArrayLen(ptr noundef nonnull %c, i64 noundef %conv) #14
  %4 = load i32, ptr %argc, align 8
  %cmp16 = icmp sgt i32 %4, 2
  br i1 %cmp16, label %for.body.lr.ph, label %for.end

for.body.lr.ph:                                   ; preds = %if.end
  %tobool4.not = icmp eq ptr %call, null
  %arrayidx17 = getelementptr inbounds i8, ptr %xy, i64 8
  br i1 %tobool4.not, label %for.body.us, label %for.body

for.body.us:                                      ; preds = %for.body.lr.ph, %for.body.us
  %j.017.us = phi i32 [ %inc.us, %for.body.us ], [ 2, %for.body.lr.ph ]
  tail call void @addReplyNullArray(ptr noundef nonnull %c) #14
  %inc.us = add nuw nsw i32 %j.017.us, 1
  %5 = load i32, ptr %argc, align 8
  %cmp.us = icmp slt i32 %inc.us, %5
  br i1 %cmp.us, label %for.body.us, label %for.end, !llvm.loop !21

for.body:                                         ; preds = %for.body.lr.ph, %for.inc
  %indvars.iv = phi i64 [ %indvars.iv.next, %for.inc ], [ 2, %for.body.lr.ph ]
  %6 = load ptr, ptr %argv, align 8
  %arrayidx6 = getelementptr inbounds ptr, ptr %6, i64 %indvars.iv
  %7 = load ptr, ptr %arrayidx6, align 8
  %ptr = getelementptr inbounds i8, ptr %7, i64 8
  %8 = load ptr, ptr %ptr, align 8
  %call7 = call i32 @zsetScore(ptr noundef nonnull %call, ptr noundef %8, ptr noundef nonnull %score) #14
  %cmp8 = icmp eq i32 %call7, -1
  br i1 %cmp8, label %if.then10, label %if.else

if.then10:                                        ; preds = %for.body
  call void @addReplyNullArray(ptr noundef nonnull %c) #14
  br label %for.inc

if.else:                                          ; preds = %for.body
  %9 = load double, ptr %score, align 8
  %conv.i = fptoui double %9 to i64
  %call.i = call i32 @geohashDecodeToLongLatWGS84(i64 %conv.i, i8 26, ptr noundef nonnull %xy) #14
  %tobool12.not = icmp eq i32 %call.i, 0
  br i1 %tobool12.not, label %if.then13, label %if.end14

if.then13:                                        ; preds = %if.else
  call void @addReplyNullArray(ptr noundef nonnull %c) #14
  br label %for.inc

if.end14:                                         ; preds = %if.else
  call void @addReplyArrayLen(ptr noundef nonnull %c, i64 noundef 2) #14
  %10 = load double, ptr %xy, align 16
  %conv16 = fpext double %10 to x86_fp80
  call void @addReplyHumanLongDouble(ptr noundef nonnull %c, x86_fp80 noundef %conv16) #14
  %11 = load double, ptr %arrayidx17, align 8
  %conv18 = fpext double %11 to x86_fp80
  call void @addReplyHumanLongDouble(ptr noundef nonnull %c, x86_fp80 noundef %conv18) #14
  br label %for.inc

for.inc:                                          ; preds = %if.then10, %if.end14, %if.then13
  %indvars.iv.next = add nuw nsw i64 %indvars.iv, 1
  %12 = load i32, ptr %argc, align 8
  %13 = sext i32 %12 to i64
  %cmp = icmp slt i64 %indvars.iv.next, %13
  br i1 %cmp, label %for.body, label %for.end, !llvm.loop !21

for.end:                                          ; preds = %for.inc, %for.body.us, %if.end, %entry
  ret void
}